; Function Attrs: nounwind uwtable
define internal i32 @test_CTX_set0_get0_newPkey_0() #1 {
  %1 = tail call fastcc ptr @set_up(ptr noundef nonnull @.str.30)
  %2 = icmp eq ptr %1, null
  br i1 %2, label %54, label %3

3:                                                ; preds = %0
  %4 = getelementptr i8, ptr %1, i64 8
  %.val = load ptr, ptr %4, align 8, !tbaa !4
  %5 = tail call ptr @EVP_PKEY_new() #6
  %6 = tail call ptr @EVP_PKEY_new() #6
  %7 = tail call i64 @ERR_peek_error() #6
  %8 = trunc i64 %7 to i32
  %9 = tail call i32 @test_int_eq(ptr noundef nonnull @.str, i32 noundef 780, ptr noundef nonnull @.str.62, ptr noundef nonnull @.str.63, i32 noundef %8, i32 noundef 0) #6
  %10 = tail call i32 @OSSL_CMP_CTX_set0_newPkey(ptr noundef null, i32 noundef 0, ptr noundef %5) #6
  %.not31.i = icmp eq i32 %10, 0
  br i1 %.not31.i, label %11, label %14

11:                                               ; preds = %3
  %.not.i = icmp ne i32 %9, 0
  %spec.select.i = zext i1 %.not.i to i32
  %12 = tail call i64 @ERR_peek_error() #6
  %13 = icmp eq i64 %12, 0
  br i1 %13, label %14, label %15

14:                                               ; preds = %11, %3
  tail call void (ptr, i32, ptr, ...) @test_error(ptr noundef nonnull @.str, i32 noundef 780, ptr noundef nonnull @.str.64) #6
  br label %15

15:                                               ; preds = %14, %11
  %.1.i = phi i32 [ 0, %14 ], [ %spec.select.i, %11 ]
  tail call void @ERR_clear_error() #6
  %16 = tail call ptr @OSSL_CMP_CTX_get0_newPkey(ptr noundef null, i32 noundef 0) #6
  %.not32.i = icmp eq ptr %16, null
  br i1 %.not32.i, label %17, label %20

17:                                               ; preds = %15
  %18 = tail call i64 @ERR_peek_error() #6
  %19 = icmp eq i64 %18, 0
  br i1 %19, label %20, label %21

20:                                               ; preds = %17, %15
  tail call void (ptr, i32, ptr, ...) @test_error(ptr noundef nonnull @.str, i32 noundef 780, ptr noundef nonnull @.str.65) #6
  br label %21

21:                                               ; preds = %20, %17
  %.2.i = phi i32 [ 0, %20 ], [ %.1.i, %17 ]
  tail call void @ERR_clear_error() #6
  %22 = tail call ptr @OSSL_CMP_CTX_get0_newPkey(ptr noundef %.val, i32 noundef 0) #6
  %23 = icmp eq ptr %22, null
  br i1 %23, label %25, label %24

24:                                               ; preds = %21
  tail call void (ptr, i32, ptr, ...) @test_error(ptr noundef nonnull @.str, i32 noundef 780, ptr noundef nonnull @.str.66) #6
  br label %25

25:                                               ; preds = %24, %21
  %.3.i = phi i32 [ %.2.i, %21 ], [ 0, %24 ]
  %26 = tail call i32 @OSSL_CMP_CTX_set0_newPkey(ptr noundef %.val, i32 noundef 0, ptr noundef %5) #6
  %.not33.i = icmp eq i32 %26, 0
  br i1 %.not33.i, label %27, label %28

27:                                               ; preds = %25
  tail call void (ptr, i32, ptr, ...) @test_error(ptr noundef nonnull @.str, i32 noundef 780, ptr noundef nonnull @.str.67) #6
  br label %28

28:                                               ; preds = %27, %25
  %.4.i = phi i32 [ %.3.i, %25 ], [ 0, %27 ]
  %29 = tail call ptr @OSSL_CMP_CTX_get0_newPkey(ptr noundef %.val, i32 noundef 0) #6
  %.not34.i = icmp eq ptr %29, %5
  br i1 %.not34.i, label %31, label %30

30:                                               ; preds = %28
  tail call void (ptr, i32, ptr, ...) @test_error(ptr noundef nonnull @.str, i32 noundef 780, ptr noundef nonnull @.str.68) #6
  br label %31

31:                                               ; preds = %30, %28
  %.5.i = phi i32 [ 0, %30 ], [ %.4.i, %28 ]
  %32 = tail call i32 @OSSL_CMP_CTX_set0_newPkey(ptr noundef %.val, i32 noundef 0, ptr noundef %6) #6
  %.not35.i = icmp eq i32 %32, 0
  br i1 %.not35.i, label %33, label %34

33:                                               ; preds = %31
  tail call void (ptr, i32, ptr, ...) @test_error(ptr noundef nonnull @.str, i32 noundef 780, ptr noundef nonnull @.str.69) #6
  br label %34

34:                                               ; preds = %33, %31
  %.6.i = phi i32 [ %.5.i, %31 ], [ 0, %33 ]
  %35 = tail call ptr @OSSL_CMP_CTX_get0_newPkey(ptr noundef %.val, i32 noundef 0) #6
  %36 = icmp eq ptr %35, null
  br i1 %36, label %37, label %38

37:                                               ; preds = %34
  tail call void (ptr, i32, ptr, ...) @test_error(ptr noundef nonnull @.str, i32 noundef 780, ptr noundef nonnull @.str.70) #6
  br label %38

38:                                               ; preds = %37, %34
  %.7.i = phi i32 [ 0, %37 ], [ %.6.i, %34 ]
  %.not36.i = icmp eq ptr %35, %6
  br i1 %.not36.i, label %40, label %39

39:                                               ; preds = %38
  tail call void (ptr, i32, ptr, ...) @test_error(ptr noundef nonnull @.str, i32 noundef 780, ptr noundef nonnull @.str.71) #6
  br label %40

40:                                               ; preds = %39, %38
  %.8.i = phi i32 [ 0, %39 ], [ %.7.i, %38 ]
  %41 = tail call ptr @OSSL_CMP_CTX_get0_newPkey(ptr noundef %.val, i32 noundef 0) #6
  %42 = icmp eq ptr %41, null
  br i1 %42, label %43, label %44

43:                                               ; preds = %40
  tail call void (ptr, i32, ptr, ...) @test_error(ptr noundef nonnull @.str, i32 noundef 780, ptr noundef nonnull @.str.72) #6
  br label %44

44:                                               ; preds = %43, %40
  %.9.i = phi i32 [ 0, %43 ], [ %.8.i, %40 ]
  %.not37.i = icmp eq ptr %41, %35
  br i1 %.not37.i, label %tear_down.exit, label %45

45:                                               ; preds = %44
  tail call void (ptr, i32, ptr, ...) @test_error(ptr noundef nonnull @.str, i32 noundef 780, ptr noundef nonnull @.str.73) #6
  br label %tear_down.exit

tear_down.exit:                                   ; preds = %44, %45
  %.10.i = phi i32 [ 0, %45 ], [ %.9.i, %44 ]
  %46 = tail call i64 @ERR_peek_error() #6
  %47 = trunc i64 %46 to i32
  %48 = tail call i32 @test_int_eq(ptr noundef nonnull @.str, i32 noundef 780, ptr noundef nonnull @.str.62, ptr noundef nonnull @.str.63, i32 noundef %47, i32 noundef 0) #6
  %.not38.i = icmp ne i32 %48, 0
  tail call void @EVP_PKEY_free(ptr noundef null) #6
  tail call void @EVP_PKEY_free(ptr noundef null) #6
  %49 = icmp ne i32 %.10.i, 0
  %50 = select i1 %.not38.i, i1 %49, i1 false
  %51 = zext i1 %50 to i32
  %52 = tail call i32 @test_true(ptr noundef nonnull @.str, i32 noundef 780, ptr noundef nonnull @.str.74, i32 noundef %51) #6
  %53 = load ptr, ptr %4, align 8, !tbaa !4
  tail call void @OSSL_CMP_CTX_free(ptr noundef %53) #6
  tail call void @CRYPTO_free(ptr noundef nonnull %1, ptr noundef nonnull @.str, i32 noundef 25) #6
  br label %54

54:                                               ; preds = %0, %tear_down.exit
  %.05 = phi i32 [ %52, %tear_down.exit ], [ 0, %0 ]
  ret i32 %.05
}